target datalayout = "e-m:e-p270:32:32-p271:32:32-p272:64:64-i64:64-i128:128-f80:128-n8:16:32:64-S128"
target triple = "x86_64-pc-linux-gnu"

%struct.DefElem = type { i32, ptr, ptr, ptr, i32, i32 }
%struct.String = type { i32, ptr }

@.str.1 = private unnamed_addr constant [15 x i8] c"functioncmds.c\00", align 1
@.str.106 = private unnamed_addr constant [5 x i8] c"safe\00", align 1
@.str.107 = private unnamed_addr constant [7 x i8] c"unsafe\00", align 1
@.str.108 = private unnamed_addr constant [11 x i8] c"restricted\00", align 1
@.str.109 = private unnamed_addr constant [57 x i8] c"parameter \22parallel\22 must be SAFE, RESTRICTED, or UNSAFE\00", align 1
@__func__.interpret_func_parallel = private unnamed_addr constant [24 x i8] c"interpret_func_parallel\00", align 1

; Function Attrs: nounwind uwtable
define internal signext i8 @interpret_func_parallel(ptr noundef %0) #0 {
  %2 = alloca i8, align 1
  %3 = alloca ptr, align 8
  %4 = alloca ptr, align 8
  %5 = alloca i32, align 4
  store ptr %0, ptr %3, align 8
  call void @llvm.lifetime.start.p0(i64 8, ptr %4) #9
  %6 = load ptr, ptr %3, align 8
  %7 = getelementptr inbounds nuw %struct.DefElem, ptr %6, i32 0, i32 3
  %8 = load ptr, ptr %7, align 8
  %9 = getelementptr inbounds nuw %struct.String, ptr %8, i32 0, i32 1
  %10 = load ptr, ptr %9, align 8
  store ptr %10, ptr %4, align 8
  %11 = load ptr, ptr %4, align 8
  %12 = call i32 @strcmp(ptr noundef %11, ptr noundef @.str.106) #11
  %13 = icmp eq i32 %12, 0
  br i1 %13, label %14, label %15

14:                                               ; preds = %1
  store i8 115, ptr %2, align 1
  store i32 1, ptr %5, align 4
  br label %37

15:                                               ; preds = %1
  %16 = load ptr, ptr %4, align 8
  %17 = call i32 @strcmp(ptr noundef %16, ptr noundef @.str.107) #11
  %18 = icmp eq i32 %17, 0
  br i1 %18, label %19, label %20

19:                                               ; preds = %15
  store i8 117, ptr %2, align 1
  store i32 1, ptr %5, align 4
  br label %37

20:                                               ; preds = %15
  %21 = load ptr, ptr %4, align 8
  %22 = call i32 @strcmp(ptr noundef %21, ptr noundef @.str.108) #11
  %23 = icmp eq i32 %22, 0
  br i1 %23, label %24, label %25

24:                                               ; preds = %20
  store i8 114, ptr %2, align 1
  store i32 1, ptr %5, align 4
  br label %37

25:                                               ; preds = %20
  br label %26

26:                                               ; preds = %25
  br i1 true, label %27, label %29

27:                                               ; preds = %26
  %28 = call zeroext i1 @errstart_cold(i32 noundef 21, ptr noundef null) #10
  br i1 %28, label %31, label %34

29:                                               ; preds = %26
  %30 = call zeroext i1 @errstart(i32 noundef 21, ptr noundef null)
  br i1 %30, label %31, label %34

31:                                               ; preds = %29, %27
  %32 = call i32 @errcode(i32 noundef 16801924)
  %33 = call i32 (ptr, ...) @errmsg(ptr noundef @.str.109)
  call void @errfinish(ptr noundef @.str.1, i32 noundef 649, ptr noundef @__func__.interpret_func_parallel)
  br label %34

34:                                               ; preds = %31, %29, %27
  unreachable

35:                                               ; No predecessors!
  br label %36

36:                                               ; preds = %35
  store i8 117, ptr %2, align 1
  store i32 1, ptr %5, align 4
  br label %37

37:                                               ; preds = %36, %24, %19, %14
  call void @llvm.lifetime.end.p0(i64 8, ptr %4) #9
  %38 = load i8, ptr %2, align 1
  ret i8 %38
}