; Function Attrs: nounwind uwtable
define internal fastcc signext range(i8 114, 118) i8 @interpret_func_parallel(ptr readonly captures(none) %.24.val.8.val) unnamed_addr #0 {
  %1 = tail call i32 @strcmp(ptr noundef nonnull dereferenceable(1) %.24.val.8.val, ptr noundef nonnull dereferenceable(5) @.str.106) #10
  %2 = icmp eq i32 %1, 0
  br i1 %2, label %13, label %3

3:                                                ; preds = %0
  %4 = tail call i32 @strcmp(ptr noundef nonnull dereferenceable(1) %.24.val.8.val, ptr noundef nonnull dereferenceable(7) @.str.107) #10
  %5 = icmp eq i32 %4, 0
  br i1 %5, label %13, label %6

6:                                                ; preds = %3
  %7 = tail call i32 @strcmp(ptr noundef nonnull dereferenceable(1) %.24.val.8.val, ptr noundef nonnull dereferenceable(11) @.str.108) #10
  %8 = icmp eq i32 %7, 0
  br i1 %8, label %13, label %9

9:                                                ; preds = %6
  %10 = tail call zeroext i1 @errstart_cold(i32 noundef 21, ptr noundef null) #9
  tail call void @llvm.assume(i1 %10)
  %11 = tail call i32 @errcode(i32 noundef 16801924) #8
  %12 = tail call i32 (ptr, ...) @errmsg(ptr noundef nonnull @.str.109) #8
  tail call void @errfinish(ptr noundef nonnull @.str.1, i32 noundef 649, ptr noundef nonnull @__func__.interpret_func_parallel) #8
  unreachable

13:                                               ; preds = %6, %3, %0
  %.0 = phi i8 [ 115, %0 ], [ 117, %3 ], [ 114, %6 ]
  ret i8 %.0
}